; Function Attrs: nofree nounwind uwtable
define void @Sbd_PrintCnf(ptr noundef readonly captures(none) %0) local_unnamed_addr #0 {
  %2 = getelementptr i8, ptr %0, i64 4
  %.val10 = load i32, ptr %2, align 4, !tbaa !3
  %3 = icmp sgt i32 %.val10, 0
  br i1 %3, label %.lr.ph, label %.critedge

.lr.ph:                                           ; preds = %1
  %4 = getelementptr i8, ptr %0, i64 8
  br label %5

5:                                                ; preds = %.lr.ph, %16
  %indvars.iv = phi i64 [ 0, %.lr.ph ], [ %indvars.iv.next, %16 ]
  %.val9 = load ptr, ptr %4, align 8, !tbaa !10
  %6 = getelementptr inbounds nuw i8, ptr %.val9, i64 %indvars.iv
  %7 = load i8, ptr %6, align 1, !tbaa !11
  %8 = icmp eq i8 %7, -1
  br i1 %8, label %9, label %10

9:                                                ; preds = %5
  %putchar = tail call i32 @putchar(i32 10)
  br label %16

10:                                               ; preds = %5
  %11 = and i8 %7, 1
  %.not = icmp eq i8 %11, 0
  %12 = select i1 %.not, ptr @.str.3, ptr @.str.2
  %13 = ashr i8 %7, 1
  %14 = sext i8 %13 to i32
  %15 = tail call i32 (ptr, ...) @printf(ptr noundef nonnull dereferenceable(1) @.str.1, ptr noundef nonnull %12, i32 noundef %14)
  br label %16

16:                                               ; preds = %9, %10
  %indvars.iv.next = add nuw nsw i64 %indvars.iv, 1
  %.val = load i32, ptr %2, align 4, !tbaa !3
  %17 = sext i32 %.val to i64
  %18 = icmp slt i64 %indvars.iv.next, %17
  br i1 %18, label %5, label %.critedge, !llvm.loop !12

.critedge:                                        ; preds = %16, %1
  ret void
}